(dp0
S'20160705060000today.wav'
p1
(lp2
I188
aI7532
aI14487
aI25492
aI29370
aI42649
aI48399
aI59073
aI61534
aI67421
aI72741
aI77031
aI84286
aI90597
aI96698
aI108961
aI126579
aI138636
aI155245
aI170636
aI185036
aI189097
aI192693
aI210035
aI215086
aI223374
aI231950
aI236429
aI243398
aI255280
aI260062
aI274501
aI287312
aI289648
aI298935
aI302174
aI308183
aI312460
aI319072
aI325207
aI333267
aI341249
aI344017
aI350131
aI353618
aI354561
aI361262
aI366540
aI377152
aI386869
aI391280
aI398830
aI411517
aI460823
aI464615
aI492146
aI495743
aI507110
aI511877
aI523421
aI545388
aI552138
aI562186
aI566892
aI570670
aI575285
aI582769
aI613193
aI618023
aI621784
aI626579
aI628558
aI634486
aI638395
aI641160
aI643715
aI694409
aI698326
aI704430
aI714126
aI726428
aI747815
aI758279
aI762944
aI774082
aI798283
aI805493
aI818628
aI823881
aI838517
aI845750
aI916793
aI921523
aI928158
aI933311
aI942914
aI947725
aI952440
aI960745
aI970967
aI973939
aI980604
aI996944
aI1004178
aI1015301
aI1020925
aI1033216
aI1035891
aI1041373
aI1042619
aI1048138
aI1050820
aI1056480
aI1060103
aI1065024
aI1077084
aI1088700
aI1092393
as.